   1               		.file	"grid2.c"
   2               	__SREG__ = 0x3f
   3               	__SP_H__ = 0x3e
   4               	__SP_L__ = 0x3d
   5               	__CCP__  = 0x34
   6               	__tmp_reg__ = 0
   7               	__zero_reg__ = 1
  15               	.Ltext0:
  16               	.global	fwd
  18               	fwd:
  19               	.LFB6:
  20               	.LM1:
  21               	.LVL0:
  22 0000 AF92      		push r10
  23 0002 BF92      		push r11
  24 0004 CF92      		push r12
  25 0006 DF92      		push r13
  26 0008 EF92      		push r14
  27 000a FF92      		push r15
  28 000c 0F93      		push r16
  29 000e 1F93      		push r17
  30               	/* prologue: function */
  31               	/* frame size = 0 */
  32               	.LM2:
  33 0010 21B3      		in r18,49-32
  34 0012 206F      		ori r18,lo8(-16)
  35 0014 21BB      		out 49-32,r18
  36               	.LM3:
  37 0016 20E5      		ldi r18,lo8(80)
  38 0018 22BB      		out 50-32,r18
  39               	.LM4:
  40 001a A0E0      		ldi r26,lo8(0)
  41 001c B0E0      		ldi r27,hi8(0)
  42               	.LVL1:
  43 001e BC01      		movw r22,r24
  44 0020 CD01      		movw r24,r26
  45 0022 0E94 0000 		call __floatunsisf
  46               	.LVL2:
  47 0026 5B01      		movw r10,r22
  48 0028 6C01      		movw r12,r24
  49               	.LBB90:
  50               	.LBB91:
  51               	.LM5:
  52 002a 20E0      		ldi r18,lo8(0x457a0000)
  53 002c 30E0      		ldi r19,hi8(0x457a0000)
  54 002e 4AE7      		ldi r20,hlo8(0x457a0000)
  55 0030 55E4      		ldi r21,hhi8(0x457a0000)
  56 0032 0E94 0000 		call __mulsf3
  57 0036 7B01      		movw r14,r22
  58 0038 8C01      		movw r16,r24
  59               	.LM6:
  60 003a 20E0      		ldi r18,lo8(0x3f800000)
  61 003c 30E0      		ldi r19,hi8(0x3f800000)
  62 003e 40E8      		ldi r20,hlo8(0x3f800000)
  63 0040 5FE3      		ldi r21,hhi8(0x3f800000)
  64 0042 0E94 0000 		call __ltsf2
  65 0046 8823      		tst r24
  66 0048 04F4      		brge .L13
  67 004a 61E0      		ldi r22,lo8(1)
  68 004c 70E0      		ldi r23,hi8(1)
  69               	.LVL3:
  70 004e 00C0      		rjmp .L4
  71               	.LVL4:
  72               	.L13:
  73               	.LM7:
  74 0050 C801      		movw r24,r16
  75 0052 B701      		movw r22,r14
  76 0054 20E0      		ldi r18,lo8(0x477fff00)
  77 0056 3FEF      		ldi r19,hi8(0x477fff00)
  78 0058 4FE7      		ldi r20,hlo8(0x477fff00)
  79 005a 57E4      		ldi r21,hhi8(0x477fff00)
  80 005c 0E94 0000 		call __gtsf2
  81 0060 1816      		cp __zero_reg__,r24
  82 0062 04F4      		brge .L14
  83               	.LM8:
  84 0064 C601      		movw r24,r12
  85 0066 B501      		movw r22,r10
  86 0068 20E0      		ldi r18,lo8(0x41200000)
  87 006a 30E0      		ldi r19,hi8(0x41200000)
  88 006c 40E2      		ldi r20,hlo8(0x41200000)
  89 006e 51E4      		ldi r21,hhi8(0x41200000)
  90 0070 0E94 0000 		call __mulsf3
  91 0074 0E94 0000 		call __fixunssfsi
  92               	.LBB92:
  93               	.LBB93:
  94               	.LM9:
  95 0078 80E9      		ldi r24,lo8(400)
  96 007a 91E0      		ldi r25,hi8(400)
  97 007c 00C0      		rjmp .L7
  98               	.LVL5:
  99               	.L8:
 100 007e FC01      		movw r30,r24
 101               	/* #APP */
 102               	 ;  105 "d:/winavr-20100110/lib/gcc/../../avr/include/util/delay_basic.h" 1
 103 0080 3197      		1: sbiw r30,1
 104 0082 01F4      		brne 1b
 105               	 ;  0 "" 2
 106               	/* #NOAPP */
 107               	.LBE93:
 108               	.LBE92:
 109               	.LM10:
 110 0084 6150      		subi r22,lo8(-(-1))
 111 0086 7040      		sbci r23,hi8(-(-1))
 112               	.L7:
 113               	.LM11:
 114 0088 6115      		cp r22,__zero_reg__
 115 008a 7105      		cpc r23,__zero_reg__
 116 008c 01F4      		brne .L8
 117 008e 00C0      		rjmp .L9
 118               	.LVL6:
 119               	.L14:
 120               	.LM12:
 121 0090 C801      		movw r24,r16
 122 0092 B701      		movw r22,r14
 123 0094 0E94 0000 		call __fixunssfsi
 124               	.LVL7:
 125               	.L4:
 126               	.LBB94:
 127               	.LBB95:
 128               	.LM13:
 129 0098 CB01      		movw r24,r22
 130               	.LVL8:
 131               	/* #APP */
 132               	 ;  105 "d:/winavr-20100110/lib/gcc/../../avr/include/util/delay_basic.h" 1
 133 009a 0197      		1: sbiw r24,1
 134 009c 01F4      		brne 1b
 135               	 ;  0 "" 2
 136               	.LVL9:
 137               	/* #NOAPP */
 138               	.L9:
 139               	.LBE95:
 140               	.LBE94:
 141               	.LBE91:
 142               	.LBE90:
 143               	.LM14:
 144 009e 12BA      		out 50-32,__zero_reg__
 145               	.LBB96:
 146               	.LBB97:
 147               	.LBB98:
 148               	.LBB99:
 149               	.LM15:
 150 00a0 80E2      		ldi r24,lo8(20000)
 151 00a2 9EE4      		ldi r25,hi8(20000)
 152               	.LVL10:
 153               	/* #APP */
 154               	 ;  105 "d:/winavr-20100110/lib/gcc/../../avr/include/util/delay_basic.h" 1
 155 00a4 0197      		1: sbiw r24,1
 156 00a6 01F4      		brne 1b
 157               	 ;  0 "" 2
 158               	/* epilogue start */
 159               	/* #NOAPP */
 160               	.LBE99:
 161               	.LBE98:
 162               	.LBE97:
 163               	.LBE96:
 164               	.LM16:
 165 00a8 1F91      		pop r17
 166 00aa 0F91      		pop r16
 167 00ac FF90      		pop r15
 168 00ae EF90      		pop r14
 169 00b0 DF90      		pop r13
 170 00b2 CF90      		pop r12
 171 00b4 BF90      		pop r11
 172 00b6 AF90      		pop r10
 173 00b8 0895      		ret
 174               	.LFE6:
 176               	.global	bck
 178               	bck:
 179               	.LFB7:
 180               	.LM17:
 181               	.LVL11:
 182 00ba AF92      		push r10
 183 00bc BF92      		push r11
 184 00be CF92      		push r12
 185 00c0 DF92      		push r13
 186 00c2 EF92      		push r14
 187 00c4 FF92      		push r15
 188 00c6 0F93      		push r16
 189 00c8 1F93      		push r17
 190               	/* prologue: function */
 191               	/* frame size = 0 */
 192               	.LM18:
 193 00ca 21B3      		in r18,49-32
 194 00cc 206F      		ori r18,lo8(-16)
 195 00ce 21BB      		out 49-32,r18
 196               	.LM19:
 197 00d0 22B3      		in r18,50-32
 198 00d2 206A      		ori r18,lo8(-96)
 199 00d4 22BB      		out 50-32,r18
 200               	.LM20:
 201 00d6 A0E0      		ldi r26,lo8(0)
 202 00d8 B0E0      		ldi r27,hi8(0)
 203               	.LVL12:
 204 00da BC01      		movw r22,r24
 205 00dc CD01      		movw r24,r26
 206 00de 0E94 0000 		call __floatunsisf
 207               	.LVL13:
 208 00e2 5B01      		movw r10,r22
 209 00e4 6C01      		movw r12,r24
 210               	.LBB100:
 211               	.LBB101:
 212               	.LM21:
 213 00e6 20E0      		ldi r18,lo8(0x457a0000)
 214 00e8 30E0      		ldi r19,hi8(0x457a0000)
 215 00ea 4AE7      		ldi r20,hlo8(0x457a0000)
 216 00ec 55E4      		ldi r21,hhi8(0x457a0000)
 217 00ee 0E94 0000 		call __mulsf3
 218 00f2 7B01      		movw r14,r22
 219 00f4 8C01      		movw r16,r24
 220               	.LM22:
 221 00f6 20E0      		ldi r18,lo8(0x3f800000)
 222 00f8 30E0      		ldi r19,hi8(0x3f800000)
 223 00fa 40E8      		ldi r20,hlo8(0x3f800000)
 224 00fc 5FE3      		ldi r21,hhi8(0x3f800000)
 225 00fe 0E94 0000 		call __ltsf2
 226 0102 8823      		tst r24
 227 0104 04F4      		brge .L27
 228 0106 61E0      		ldi r22,lo8(1)
 229 0108 70E0      		ldi r23,hi8(1)
 230               	.LVL14:
 231 010a 00C0      		rjmp .L18
 232               	.LVL15:
 233               	.L27:
 234               	.LM23:
 235 010c C801      		movw r24,r16
 236 010e B701      		movw r22,r14
 237 0110 20E0      		ldi r18,lo8(0x477fff00)
 238 0112 3FEF      		ldi r19,hi8(0x477fff00)
 239 0114 4FE7      		ldi r20,hlo8(0x477fff00)
 240 0116 57E4      		ldi r21,hhi8(0x477fff00)
 241 0118 0E94 0000 		call __gtsf2
 242 011c 1816      		cp __zero_reg__,r24
 243 011e 04F4      		brge .L28
 244               	.LM24:
 245 0120 C601      		movw r24,r12
 246 0122 B501      		movw r22,r10
 247 0124 20E0      		ldi r18,lo8(0x41200000)
 248 0126 30E0      		ldi r19,hi8(0x41200000)
 249 0128 40E2      		ldi r20,hlo8(0x41200000)
 250 012a 51E4      		ldi r21,hhi8(0x41200000)
 251 012c 0E94 0000 		call __mulsf3
 252 0130 0E94 0000 		call __fixunssfsi
 253               	.LBB102:
 254               	.LBB103:
 255               	.LM25:
 256 0134 80E9      		ldi r24,lo8(400)
 257 0136 91E0      		ldi r25,hi8(400)
 258 0138 00C0      		rjmp .L21
 259               	.LVL16:
 260               	.L22:
 261 013a FC01      		movw r30,r24
 262               	/* #APP */
 263               	 ;  105 "d:/winavr-20100110/lib/gcc/../../avr/include/util/delay_basic.h" 1
 264 013c 3197      		1: sbiw r30,1
 265 013e 01F4      		brne 1b
 266               	 ;  0 "" 2
 267               	/* #NOAPP */
 268               	.LBE103:
 269               	.LBE102:
 270               	.LM26:
 271 0140 6150      		subi r22,lo8(-(-1))
 272 0142 7040      		sbci r23,hi8(-(-1))
 273               	.L21:
 274               	.LM27:
 275 0144 6115      		cp r22,__zero_reg__
 276 0146 7105      		cpc r23,__zero_reg__
 277 0148 01F4      		brne .L22
 278 014a 00C0      		rjmp .L23
 279               	.LVL17:
 280               	.L28:
 281               	.LM28:
 282 014c C801      		movw r24,r16
 283 014e B701      		movw r22,r14
 284 0150 0E94 0000 		call __fixunssfsi
 285               	.LVL18:
 286               	.L18:
 287               	.LBB104:
 288               	.LBB105:
 289               	.LM29:
 290 0154 CB01      		movw r24,r22
 291               	.LVL19:
 292               	/* #APP */
 293               	 ;  105 "d:/winavr-20100110/lib/gcc/../../avr/include/util/delay_basic.h" 1
 294 0156 0197      		1: sbiw r24,1
 295 0158 01F4      		brne 1b
 296               	 ;  0 "" 2
 297               	.LVL20:
 298               	/* #NOAPP */
 299               	.L23:
 300               	.LBE105:
 301               	.LBE104:
 302               	.LBE101:
 303               	.LBE100:
 304               	.LM30:
 305 015a 12BA      		out 50-32,__zero_reg__
 306               	.LBB106:
 307               	.LBB107:
 308               	.LBB108:
 309               	.LBB109:
 310               	.LM31:
 311 015c 80E2      		ldi r24,lo8(20000)
 312 015e 9EE4      		ldi r25,hi8(20000)
 313               	.LVL21:
 314               	/* #APP */
 315               	 ;  105 "d:/winavr-20100110/lib/gcc/../../avr/include/util/delay_basic.h" 1
 316 0160 0197      		1: sbiw r24,1
 317 0162 01F4      		brne 1b
 318               	 ;  0 "" 2
 319               	/* epilogue start */
 320               	/* #NOAPP */
 321               	.LBE109:
 322               	.LBE108:
 323               	.LBE107:
 324               	.LBE106:
 325               	.LM32:
 326 0164 1F91      		pop r17
 327 0166 0F91      		pop r16
 328 0168 FF90      		pop r15
 329 016a EF90      		pop r14
 330 016c DF90      		pop r13
 331 016e CF90      		pop r12
 332 0170 BF90      		pop r11
 333 0172 AF90      		pop r10
 334 0174 0895      		ret
 335               	.LFE7:
 337               	.global	right_fwd
 339               	right_fwd:
 340               	.LFB8:
 341               	.LM33:
 342               	.LVL22:
 343 0176 AF92      		push r10
 344 0178 BF92      		push r11
 345 017a CF92      		push r12
 346 017c DF92      		push r13
 347 017e EF92      		push r14
 348 0180 FF92      		push r15
 349 0182 0F93      		push r16
 350 0184 1F93      		push r17
 351               	/* prologue: function */
 352               	/* frame size = 0 */
 353               	.LM34:
 354 0186 21B3      		in r18,49-32
 355 0188 206F      		ori r18,lo8(-16)
 356 018a 21BB      		out 49-32,r18
 357               	.LM35:
 358 018c 949A      		sbi 50-32,4
 359               	.LM36:
 360 018e 22B3      		in r18,50-32
 361 0190 2F71      		andi r18,lo8(31)
 362 0192 22BB      		out 50-32,r18
 363               	.LM37:
 364 0194 A0E0      		ldi r26,lo8(0)
 365 0196 B0E0      		ldi r27,hi8(0)
 366               	.LVL23:
 367 0198 BC01      		movw r22,r24
 368 019a CD01      		movw r24,r26
 369 019c 0E94 0000 		call __floatunsisf
 370               	.LVL24:
 371 01a0 5B01      		movw r10,r22
 372 01a2 6C01      		movw r12,r24
 373               	.LBB110:
 374               	.LBB111:
 375               	.LM38:
 376 01a4 20E0      		ldi r18,lo8(0x457a0000)
 377 01a6 30E0      		ldi r19,hi8(0x457a0000)
 378 01a8 4AE7      		ldi r20,hlo8(0x457a0000)
 379 01aa 55E4      		ldi r21,hhi8(0x457a0000)
 380 01ac 0E94 0000 		call __mulsf3
 381 01b0 7B01      		movw r14,r22
 382 01b2 8C01      		movw r16,r24
 383               	.LM39:
 384 01b4 20E0      		ldi r18,lo8(0x3f800000)
 385 01b6 30E0      		ldi r19,hi8(0x3f800000)
 386 01b8 40E8      		ldi r20,hlo8(0x3f800000)
 387 01ba 5FE3      		ldi r21,hhi8(0x3f800000)
 388 01bc 0E94 0000 		call __ltsf2
 389 01c0 8823      		tst r24
 390 01c2 04F4      		brge .L41
 391 01c4 61E0      		ldi r22,lo8(1)
 392 01c6 70E0      		ldi r23,hi8(1)
 393               	.LVL25:
 394 01c8 00C0      		rjmp .L32
 395               	.LVL26:
 396               	.L41:
 397               	.LM40:
 398 01ca C801      		movw r24,r16
 399 01cc B701      		movw r22,r14
 400 01ce 20E0      		ldi r18,lo8(0x477fff00)
 401 01d0 3FEF      		ldi r19,hi8(0x477fff00)
 402 01d2 4FE7      		ldi r20,hlo8(0x477fff00)
 403 01d4 57E4      		ldi r21,hhi8(0x477fff00)
 404 01d6 0E94 0000 		call __gtsf2
 405 01da 1816      		cp __zero_reg__,r24
 406 01dc 04F4      		brge .L42
 407               	.LM41:
 408 01de C601      		movw r24,r12
 409 01e0 B501      		movw r22,r10
 410 01e2 20E0      		ldi r18,lo8(0x41200000)
 411 01e4 30E0      		ldi r19,hi8(0x41200000)
 412 01e6 40E2      		ldi r20,hlo8(0x41200000)
 413 01e8 51E4      		ldi r21,hhi8(0x41200000)
 414 01ea 0E94 0000 		call __mulsf3
 415 01ee 0E94 0000 		call __fixunssfsi
 416               	.LBB112:
 417               	.LBB113:
 418               	.LM42:
 419 01f2 80E9      		ldi r24,lo8(400)
 420 01f4 91E0      		ldi r25,hi8(400)
 421 01f6 00C0      		rjmp .L35
 422               	.LVL27:
 423               	.L36:
 424 01f8 FC01      		movw r30,r24
 425               	/* #APP */
 426               	 ;  105 "d:/winavr-20100110/lib/gcc/../../avr/include/util/delay_basic.h" 1
 427 01fa 3197      		1: sbiw r30,1
 428 01fc 01F4      		brne 1b
 429               	 ;  0 "" 2
 430               	/* #NOAPP */
 431               	.LBE113:
 432               	.LBE112:
 433               	.LM43:
 434 01fe 6150      		subi r22,lo8(-(-1))
 435 0200 7040      		sbci r23,hi8(-(-1))
 436               	.L35:
 437               	.LM44:
 438 0202 6115      		cp r22,__zero_reg__
 439 0204 7105      		cpc r23,__zero_reg__
 440 0206 01F4      		brne .L36
 441 0208 00C0      		rjmp .L37
 442               	.LVL28:
 443               	.L42:
 444               	.LM45:
 445 020a C801      		movw r24,r16
 446 020c B701      		movw r22,r14
 447 020e 0E94 0000 		call __fixunssfsi
 448               	.LVL29:
 449               	.L32:
 450               	.LBB114:
 451               	.LBB115:
 452               	.LM46:
 453 0212 CB01      		movw r24,r22
 454               	.LVL30:
 455               	/* #APP */
 456               	 ;  105 "d:/winavr-20100110/lib/gcc/../../avr/include/util/delay_basic.h" 1
 457 0214 0197      		1: sbiw r24,1
 458 0216 01F4      		brne 1b
 459               	 ;  0 "" 2
 460               	.LVL31:
 461               	/* #NOAPP */
 462               	.L37:
 463               	.LBE115:
 464               	.LBE114:
 465               	.LBE111:
 466               	.LBE110:
 467               	.LM47:
 468 0218 12BA      		out 50-32,__zero_reg__
 469               	.LBB116:
 470               	.LBB117:
 471               	.LBB118:
 472               	.LBB119:
 473               	.LM48:
 474 021a 80E2      		ldi r24,lo8(20000)
 475 021c 9EE4      		ldi r25,hi8(20000)
 476               	.LVL32:
 477               	/* #APP */
 478               	 ;  105 "d:/winavr-20100110/lib/gcc/../../avr/include/util/delay_basic.h" 1
 479 021e 0197      		1: sbiw r24,1
 480 0220 01F4      		brne 1b
 481               	 ;  0 "" 2
 482               	/* epilogue start */
 483               	/* #NOAPP */
 484               	.LBE119:
 485               	.LBE118:
 486               	.LBE117:
 487               	.LBE116:
 488               	.LM49:
 489 0222 1F91      		pop r17
 490 0224 0F91      		pop r16
 491 0226 FF90      		pop r15
 492 0228 EF90      		pop r14
 493 022a DF90      		pop r13
 494 022c CF90      		pop r12
 495 022e BF90      		pop r11
 496 0230 AF90      		pop r10
 497 0232 0895      		ret
 498               	.LFE8:
 500               	.global	right_bck
 502               	right_bck:
 503               	.LFB9:
 504               	.LM50:
 505               	.LVL33:
 506 0234 AF92      		push r10
 507 0236 BF92      		push r11
 508 0238 CF92      		push r12
 509 023a DF92      		push r13
 510 023c EF92      		push r14
 511 023e FF92      		push r15
 512 0240 0F93      		push r16
 513 0242 1F93      		push r17
 514               	/* prologue: function */
 515               	/* frame size = 0 */
 516               	.LM51:
 517 0244 21B3      		in r18,49-32
 518 0246 206F      		ori r18,lo8(-16)
 519 0248 21BB      		out 49-32,r18
 520               	.LM52:
 521 024a 959A      		sbi 50-32,5
 522               	.LM53:
 523 024c 22B3      		in r18,50-32
 524 024e 2F72      		andi r18,lo8(47)
 525 0250 22BB      		out 50-32,r18
 526               	.LM54:
 527 0252 A0E0      		ldi r26,lo8(0)
 528 0254 B0E0      		ldi r27,hi8(0)
 529               	.LVL34:
 530 0256 BC01      		movw r22,r24
 531 0258 CD01      		movw r24,r26
 532 025a 0E94 0000 		call __floatunsisf
 533               	.LVL35:
 534 025e 5B01      		movw r10,r22
 535 0260 6C01      		movw r12,r24
 536               	.LBB120:
 537               	.LBB121:
 538               	.LM55:
 539 0262 20E0      		ldi r18,lo8(0x457a0000)
 540 0264 30E0      		ldi r19,hi8(0x457a0000)
 541 0266 4AE7      		ldi r20,hlo8(0x457a0000)
 542 0268 55E4      		ldi r21,hhi8(0x457a0000)
 543 026a 0E94 0000 		call __mulsf3
 544 026e 7B01      		movw r14,r22
 545 0270 8C01      		movw r16,r24
 546               	.LM56:
 547 0272 20E0      		ldi r18,lo8(0x3f800000)
 548 0274 30E0      		ldi r19,hi8(0x3f800000)
 549 0276 40E8      		ldi r20,hlo8(0x3f800000)
 550 0278 5FE3      		ldi r21,hhi8(0x3f800000)
 551 027a 0E94 0000 		call __ltsf2
 552 027e 8823      		tst r24
 553 0280 04F4      		brge .L55
 554 0282 61E0      		ldi r22,lo8(1)
 555 0284 70E0      		ldi r23,hi8(1)
 556               	.LVL36:
 557 0286 00C0      		rjmp .L46
 558               	.LVL37:
 559               	.L55:
 560               	.LM57:
 561 0288 C801      		movw r24,r16
 562 028a B701      		movw r22,r14
 563 028c 20E0      		ldi r18,lo8(0x477fff00)
 564 028e 3FEF      		ldi r19,hi8(0x477fff00)
 565 0290 4FE7      		ldi r20,hlo8(0x477fff00)
 566 0292 57E4      		ldi r21,hhi8(0x477fff00)
 567 0294 0E94 0000 		call __gtsf2
 568 0298 1816      		cp __zero_reg__,r24
 569 029a 04F4      		brge .L56
 570               	.LM58:
 571 029c C601      		movw r24,r12
 572 029e B501      		movw r22,r10
 573 02a0 20E0      		ldi r18,lo8(0x41200000)
 574 02a2 30E0      		ldi r19,hi8(0x41200000)
 575 02a4 40E2      		ldi r20,hlo8(0x41200000)
 576 02a6 51E4      		ldi r21,hhi8(0x41200000)
 577 02a8 0E94 0000 		call __mulsf3
 578 02ac 0E94 0000 		call __fixunssfsi
 579               	.LBB122:
 580               	.LBB123:
 581               	.LM59:
 582 02b0 80E9      		ldi r24,lo8(400)
 583 02b2 91E0      		ldi r25,hi8(400)
 584 02b4 00C0      		rjmp .L49
 585               	.LVL38:
 586               	.L50:
 587 02b6 FC01      		movw r30,r24
 588               	/* #APP */
 589               	 ;  105 "d:/winavr-20100110/lib/gcc/../../avr/include/util/delay_basic.h" 1
 590 02b8 3197      		1: sbiw r30,1
 591 02ba 01F4      		brne 1b
 592               	 ;  0 "" 2
 593               	/* #NOAPP */
 594               	.LBE123:
 595               	.LBE122:
 596               	.LM60:
 597 02bc 6150      		subi r22,lo8(-(-1))
 598 02be 7040      		sbci r23,hi8(-(-1))
 599               	.L49:
 600               	.LM61:
 601 02c0 6115      		cp r22,__zero_reg__
 602 02c2 7105      		cpc r23,__zero_reg__
 603 02c4 01F4      		brne .L50
 604 02c6 00C0      		rjmp .L51
 605               	.LVL39:
 606               	.L56:
 607               	.LM62:
 608 02c8 C801      		movw r24,r16
 609 02ca B701      		movw r22,r14
 610 02cc 0E94 0000 		call __fixunssfsi
 611               	.LVL40:
 612               	.L46:
 613               	.LBB124:
 614               	.LBB125:
 615               	.LM63:
 616 02d0 CB01      		movw r24,r22
 617               	.LVL41:
 618               	/* #APP */
 619               	 ;  105 "d:/winavr-20100110/lib/gcc/../../avr/include/util/delay_basic.h" 1
 620 02d2 0197      		1: sbiw r24,1
 621 02d4 01F4      		brne 1b
 622               	 ;  0 "" 2
 623               	.LVL42:
 624               	/* #NOAPP */
 625               	.L51:
 626               	.LBE125:
 627               	.LBE124:
 628               	.LBE121:
 629               	.LBE120:
 630               	.LM64:
 631 02d6 12BA      		out 50-32,__zero_reg__
 632               	.LBB126:
 633               	.LBB127:
 634               	.LBB128:
 635               	.LBB129:
 636               	.LM65:
 637 02d8 80E2      		ldi r24,lo8(20000)
 638 02da 9EE4      		ldi r25,hi8(20000)
 639               	.LVL43:
 640               	/* #APP */
 641               	 ;  105 "d:/winavr-20100110/lib/gcc/../../avr/include/util/delay_basic.h" 1
 642 02dc 0197      		1: sbiw r24,1
 643 02de 01F4      		brne 1b
 644               	 ;  0 "" 2
 645               	/* epilogue start */
 646               	/* #NOAPP */
 647               	.LBE129:
 648               	.LBE128:
 649               	.LBE127:
 650               	.LBE126:
 651               	.LM66:
 652 02e0 1F91      		pop r17
 653 02e2 0F91      		pop r16
 654 02e4 FF90      		pop r15
 655 02e6 EF90      		pop r14
 656 02e8 DF90      		pop r13
 657 02ea CF90      		pop r12
 658 02ec BF90      		pop r11
 659 02ee AF90      		pop r10
 660 02f0 0895      		ret
 661               	.LFE9:
 663               	.global	left_fwd
 665               	left_fwd:
 666               	.LFB10:
 667               	.LM67:
 668               	.LVL44:
 669 02f2 AF92      		push r10
 670 02f4 BF92      		push r11
 671 02f6 CF92      		push r12
 672 02f8 DF92      		push r13
 673 02fa EF92      		push r14
 674 02fc FF92      		push r15
 675 02fe 0F93      		push r16
 676 0300 1F93      		push r17
 677               	/* prologue: function */
 678               	/* frame size = 0 */
 679               	.LM68:
 680 0302 21B3      		in r18,49-32
 681 0304 206F      		ori r18,lo8(-16)
 682 0306 21BB      		out 49-32,r18
 683               	.LM69:
 684 0308 969A      		sbi 50-32,6
 685               	.LM70:
 686 030a 22B3      		in r18,50-32
 687 030c 2F74      		andi r18,lo8(79)
 688 030e 22BB      		out 50-32,r18
 689               	.LM71:
 690 0310 A0E0      		ldi r26,lo8(0)
 691 0312 B0E0      		ldi r27,hi8(0)
 692               	.LVL45:
 693 0314 BC01      		movw r22,r24
 694 0316 CD01      		movw r24,r26
 695 0318 0E94 0000 		call __floatunsisf
 696               	.LVL46:
 697 031c 5B01      		movw r10,r22
 698 031e 6C01      		movw r12,r24
 699               	.LBB130:
 700               	.LBB131:
 701               	.LM72:
 702 0320 20E0      		ldi r18,lo8(0x457a0000)
 703 0322 30E0      		ldi r19,hi8(0x457a0000)
 704 0324 4AE7      		ldi r20,hlo8(0x457a0000)
 705 0326 55E4      		ldi r21,hhi8(0x457a0000)
 706 0328 0E94 0000 		call __mulsf3
 707 032c 7B01      		movw r14,r22
 708 032e 8C01      		movw r16,r24
 709               	.LM73:
 710 0330 20E0      		ldi r18,lo8(0x3f800000)
 711 0332 30E0      		ldi r19,hi8(0x3f800000)
 712 0334 40E8      		ldi r20,hlo8(0x3f800000)
 713 0336 5FE3      		ldi r21,hhi8(0x3f800000)
 714 0338 0E94 0000 		call __ltsf2
 715 033c 8823      		tst r24
 716 033e 04F4      		brge .L69
 717 0340 61E0      		ldi r22,lo8(1)
 718 0342 70E0      		ldi r23,hi8(1)
 719               	.LVL47:
 720 0344 00C0      		rjmp .L60
 721               	.LVL48:
 722               	.L69:
 723               	.LM74:
 724 0346 C801      		movw r24,r16
 725 0348 B701      		movw r22,r14
 726 034a 20E0      		ldi r18,lo8(0x477fff00)
 727 034c 3FEF      		ldi r19,hi8(0x477fff00)
 728 034e 4FE7      		ldi r20,hlo8(0x477fff00)
 729 0350 57E4      		ldi r21,hhi8(0x477fff00)
 730 0352 0E94 0000 		call __gtsf2
 731 0356 1816      		cp __zero_reg__,r24
 732 0358 04F4      		brge .L70
 733               	.LM75:
 734 035a C601      		movw r24,r12
 735 035c B501      		movw r22,r10
 736 035e 20E0      		ldi r18,lo8(0x41200000)
 737 0360 30E0      		ldi r19,hi8(0x41200000)
 738 0362 40E2      		ldi r20,hlo8(0x41200000)
 739 0364 51E4      		ldi r21,hhi8(0x41200000)
 740 0366 0E94 0000 		call __mulsf3
 741 036a 0E94 0000 		call __fixunssfsi
 742               	.LBB132:
 743               	.LBB133:
 744               	.LM76:
 745 036e 80E9      		ldi r24,lo8(400)
 746 0370 91E0      		ldi r25,hi8(400)
 747 0372 00C0      		rjmp .L63
 748               	.LVL49:
 749               	.L64:
 750 0374 FC01      		movw r30,r24
 751               	/* #APP */
 752               	 ;  105 "d:/winavr-20100110/lib/gcc/../../avr/include/util/delay_basic.h" 1
 753 0376 3197      		1: sbiw r30,1
 754 0378 01F4      		brne 1b
 755               	 ;  0 "" 2
 756               	/* #NOAPP */
 757               	.LBE133:
 758               	.LBE132:
 759               	.LM77:
 760 037a 6150      		subi r22,lo8(-(-1))
 761 037c 7040      		sbci r23,hi8(-(-1))
 762               	.L63:
 763               	.LM78:
 764 037e 6115      		cp r22,__zero_reg__
 765 0380 7105      		cpc r23,__zero_reg__
 766 0382 01F4      		brne .L64
 767 0384 00C0      		rjmp .L65
 768               	.LVL50:
 769               	.L70:
 770               	.LM79:
 771 0386 C801      		movw r24,r16
 772 0388 B701      		movw r22,r14
 773 038a 0E94 0000 		call __fixunssfsi
 774               	.LVL51:
 775               	.L60:
 776               	.LBB134:
 777               	.LBB135:
 778               	.LM80:
 779 038e CB01      		movw r24,r22
 780               	.LVL52:
 781               	/* #APP */
 782               	 ;  105 "d:/winavr-20100110/lib/gcc/../../avr/include/util/delay_basic.h" 1
 783 0390 0197      		1: sbiw r24,1
 784 0392 01F4      		brne 1b
 785               	 ;  0 "" 2
 786               	.LVL53:
 787               	/* #NOAPP */
 788               	.L65:
 789               	.LBE135:
 790               	.LBE134:
 791               	.LBE131:
 792               	.LBE130:
 793               	.LM81:
 794 0394 12BA      		out 50-32,__zero_reg__
 795               	.LBB136:
 796               	.LBB137:
 797               	.LBB138:
 798               	.LBB139:
 799               	.LM82:
 800 0396 80E2      		ldi r24,lo8(20000)
 801 0398 9EE4      		ldi r25,hi8(20000)
 802               	.LVL54:
 803               	/* #APP */
 804               	 ;  105 "d:/winavr-20100110/lib/gcc/../../avr/include/util/delay_basic.h" 1
 805 039a 0197      		1: sbiw r24,1
 806 039c 01F4      		brne 1b
 807               	 ;  0 "" 2
 808               	/* epilogue start */
 809               	/* #NOAPP */
 810               	.LBE139:
 811               	.LBE138:
 812               	.LBE137:
 813               	.LBE136:
 814               	.LM83:
 815 039e 1F91      		pop r17
 816 03a0 0F91      		pop r16
 817 03a2 FF90      		pop r15
 818 03a4 EF90      		pop r14
 819 03a6 DF90      		pop r13
 820 03a8 CF90      		pop r12
 821 03aa BF90      		pop r11
 822 03ac AF90      		pop r10
 823 03ae 0895      		ret
 824               	.LFE10:
 826               	.global	left_bck
 828               	left_bck:
 829               	.LFB11:
 830               	.LM84:
 831               	.LVL55:
 832 03b0 AF92      		push r10
 833 03b2 BF92      		push r11
 834 03b4 CF92      		push r12
 835 03b6 DF92      		push r13
 836 03b8 EF92      		push r14
 837 03ba FF92      		push r15
 838 03bc 0F93      		push r16
 839 03be 1F93      		push r17
 840               	/* prologue: function */
 841               	/* frame size = 0 */
 842               	.LM85:
 843 03c0 21B3      		in r18,49-32
 844 03c2 206F      		ori r18,lo8(-16)
 845 03c4 21BB      		out 49-32,r18
 846               	.LM86:
 847 03c6 979A      		sbi 50-32,7
 848               	.LM87:
 849 03c8 22B3      		in r18,50-32
 850 03ca 2F78      		andi r18,lo8(-113)
 851 03cc 22BB      		out 50-32,r18
 852               	.LM88:
 853 03ce A0E0      		ldi r26,lo8(0)
 854 03d0 B0E0      		ldi r27,hi8(0)
 855               	.LVL56:
 856 03d2 BC01      		movw r22,r24
 857 03d4 CD01      		movw r24,r26
 858 03d6 0E94 0000 		call __floatunsisf
 859               	.LVL57:
 860 03da 5B01      		movw r10,r22
 861 03dc 6C01      		movw r12,r24
 862               	.LBB140:
 863               	.LBB141:
 864               	.LM89:
 865 03de 20E0      		ldi r18,lo8(0x457a0000)
 866 03e0 30E0      		ldi r19,hi8(0x457a0000)
 867 03e2 4AE7      		ldi r20,hlo8(0x457a0000)
 868 03e4 55E4      		ldi r21,hhi8(0x457a0000)
 869 03e6 0E94 0000 		call __mulsf3
 870 03ea 7B01      		movw r14,r22
 871 03ec 8C01      		movw r16,r24
 872               	.LM90:
 873 03ee 20E0      		ldi r18,lo8(0x3f800000)
 874 03f0 30E0      		ldi r19,hi8(0x3f800000)
 875 03f2 40E8      		ldi r20,hlo8(0x3f800000)
 876 03f4 5FE3      		ldi r21,hhi8(0x3f800000)
 877 03f6 0E94 0000 		call __ltsf2
 878 03fa 8823      		tst r24
 879 03fc 04F4      		brge .L83
 880 03fe 61E0      		ldi r22,lo8(1)
 881 0400 70E0      		ldi r23,hi8(1)
 882               	.LVL58:
 883 0402 00C0      		rjmp .L74
 884               	.LVL59:
 885               	.L83:
 886               	.LM91:
 887 0404 C801      		movw r24,r16
 888 0406 B701      		movw r22,r14
 889 0408 20E0      		ldi r18,lo8(0x477fff00)
 890 040a 3FEF      		ldi r19,hi8(0x477fff00)
 891 040c 4FE7      		ldi r20,hlo8(0x477fff00)
 892 040e 57E4      		ldi r21,hhi8(0x477fff00)
 893 0410 0E94 0000 		call __gtsf2
 894 0414 1816      		cp __zero_reg__,r24
 895 0416 04F4      		brge .L84
 896               	.LM92:
 897 0418 C601      		movw r24,r12
 898 041a B501      		movw r22,r10
 899 041c 20E0      		ldi r18,lo8(0x41200000)
 900 041e 30E0      		ldi r19,hi8(0x41200000)
 901 0420 40E2      		ldi r20,hlo8(0x41200000)
 902 0422 51E4      		ldi r21,hhi8(0x41200000)
 903 0424 0E94 0000 		call __mulsf3
 904 0428 0E94 0000 		call __fixunssfsi
 905               	.LBB142:
 906               	.LBB143:
 907               	.LM93:
 908 042c 80E9      		ldi r24,lo8(400)
 909 042e 91E0      		ldi r25,hi8(400)
 910 0430 00C0      		rjmp .L77
 911               	.LVL60:
 912               	.L78:
 913 0432 FC01      		movw r30,r24
 914               	/* #APP */
 915               	 ;  105 "d:/winavr-20100110/lib/gcc/../../avr/include/util/delay_basic.h" 1
 916 0434 3197      		1: sbiw r30,1
 917 0436 01F4      		brne 1b
 918               	 ;  0 "" 2
 919               	/* #NOAPP */
 920               	.LBE143:
 921               	.LBE142:
 922               	.LM94:
 923 0438 6150      		subi r22,lo8(-(-1))
 924 043a 7040      		sbci r23,hi8(-(-1))
 925               	.L77:
 926               	.LM95:
 927 043c 6115      		cp r22,__zero_reg__
 928 043e 7105      		cpc r23,__zero_reg__
 929 0440 01F4      		brne .L78
 930 0442 00C0      		rjmp .L79
 931               	.LVL61:
 932               	.L84:
 933               	.LM96:
 934 0444 C801      		movw r24,r16
 935 0446 B701      		movw r22,r14
 936 0448 0E94 0000 		call __fixunssfsi
 937               	.LVL62:
 938               	.L74:
 939               	.LBB144:
 940               	.LBB145:
 941               	.LM97:
 942 044c CB01      		movw r24,r22
 943               	.LVL63:
 944               	/* #APP */
 945               	 ;  105 "d:/winavr-20100110/lib/gcc/../../avr/include/util/delay_basic.h" 1
 946 044e 0197      		1: sbiw r24,1
 947 0450 01F4      		brne 1b
 948               	 ;  0 "" 2
 949               	.LVL64:
 950               	/* #NOAPP */
 951               	.L79:
 952               	.LBE145:
 953               	.LBE144:
 954               	.LBE141:
 955               	.LBE140:
 956               	.LM98:
 957 0452 12BA      		out 50-32,__zero_reg__
 958               	.LBB146:
 959               	.LBB147:
 960               	.LBB148:
 961               	.LBB149:
 962               	.LM99:
 963 0454 80E2      		ldi r24,lo8(20000)
 964 0456 9EE4      		ldi r25,hi8(20000)
 965               	.LVL65:
 966               	/* #APP */
 967               	 ;  105 "d:/winavr-20100110/lib/gcc/../../avr/include/util/delay_basic.h" 1
 968 0458 0197      		1: sbiw r24,1
 969 045a 01F4      		brne 1b
 970               	 ;  0 "" 2
 971               	/* epilogue start */
 972               	/* #NOAPP */
 973               	.LBE149:
 974               	.LBE148:
 975               	.LBE147:
 976               	.LBE146:
 977               	.LM100:
 978 045c 1F91      		pop r17
 979 045e 0F91      		pop r16
 980 0460 FF90      		pop r15
 981 0462 EF90      		pop r14
 982 0464 DF90      		pop r13
 983 0466 CF90      		pop r12
 984 0468 BF90      		pop r11
 985 046a AF90      		pop r10
 986 046c 0895      		ret
 987               	.LFE11:
 989               	.global	halt
 991               	halt:
 992               	.LFB12:
 993               	.LM101:
 994               	/* prologue: function */
 995               	/* frame size = 0 */
 996               	.LM102:
 997 046e 81B3      		in r24,49-32
 998 0470 806F      		ori r24,lo8(-16)
 999 0472 81BB      		out 49-32,r24
 1000               	.LM103:
 1001 0474 12BA      		out 50-32,__zero_reg__
 1002               	/* epilogue start */
 1003               	.LM104:
 1004 0476 0895      		ret
 1005               	.LFE12:
 1007               	.global	uturn
 1009               	uturn:
 1010               	.LFB13:
 1011               	.LM105:
 1012               	/* prologue: function */
 1013               	/* frame size = 0 */
 1014               	.LM106:
 1015 0478 81B3      		in r24,49-32
 1016 047a 806F      		ori r24,lo8(-16)
 1017 047c 81BB      		out 49-32,r24
 1018               	.LM107:
 1019 047e CE9B      		sbis 57-32,6
 1020 0480 00C0      		rjmp .L88
 1021               	.LM108:
 1022 0482 82B3      		in r24,50-32
 1023 0484 8069      		ori r24,lo8(-112)
 1024 0486 82BB      		out 50-32,r24
 1025               	.LM109:
 1026 0488 82B3      		in r24,50-32
 1027 048a 8F79      		andi r24,lo8(-97)
 1028 048c 82BB      		out 50-32,r24
 1029 048e 0895      		ret
 1030               	.L88:
 1031               	.LM110:
 1032 0490 12BA      		out 50-32,__zero_reg__
 1033 0492 0895      		ret
 1034               	.LFE13:
 1036               	.global	main
 1038               	main:
 1039               	.LFB14:
 1040               	.LM111:
 1041               	/* prologue: function */
 1042               	/* frame size = 0 */
 1043               	.LM112:
 1044 0494 8AB3      		in r24,58-32
 1045 0496 8873      		andi r24,lo8(56)
 1046 0498 8ABB      		out 58-32,r24
 1047               	.LM113:
 1048 049a BC9A      		sbi 55-32,4
 1049               	.LM114:
 1050 049c 81B3      		in r24,49-32
 1051 049e 806F      		ori r24,lo8(-16)
 1052 04a0 81BB      		out 49-32,r24
 1053               	.LM115:
 1054 04a2 C89B      		sbis 57-32,0
 1055 04a4 00C0      		rjmp .L92
 1056 04a6 CF9B      		sbis 57-32,7
 1057 04a8 00C0      		rjmp .L92
 1058 04aa CE99      		sbic 57-32,6
 1059 04ac 00C0      		rjmp .L92
 1060 04ae CA9B      		sbis 57-32,2
 1061 04b0 00C0      		rjmp .L92
 1062 04b2 C99B      		sbis 57-32,1
 1063 04b4 00C0      		rjmp .L92
 1064               	.LM116:
 1065 04b6 84EF      		ldi r24,lo8(500)
 1066 04b8 91E0      		ldi r25,hi8(500)
 1067 04ba 0E94 0000 		call fwd
 1068               	.L92:
 1069               	.LM117:
 1070 04be C899      		sbic 57-32,0
 1071 04c0 00C0      		rjmp .L93
 1072 04c2 CF99      		sbic 57-32,7
 1073 04c4 00C0      		rjmp .L93
 1074 04c6 CE99      		sbic 57-32,6
 1075 04c8 00C0      		rjmp .L93
 1076 04ca CA99      		sbic 57-32,2
 1077 04cc 00C0      		rjmp .L93
 1078 04ce 89B3      		in r24,57-32
 1079 04d0 90E0      		ldi r25,lo8(0)
 1080               	.LVL66:
 1081 04d2 9695      		lsr r25
 1082 04d4 8795      		ror r24
 1083               	.LVL67:
 1084 04d6 8095      		com r24
 1085 04d8 9095      		com r25
 1086 04da 8170      		andi r24,lo8(1)
 1087 04dc 9070      		andi r25,hi8(1)
 1088 04de 00C0      		rjmp .L94
 1089               	.LVL68:
 1090               	.L93:
 1091 04e0 80E0      		ldi r24,lo8(0)
 1092 04e2 90E0      		ldi r25,hi8(0)
 1093               	.LVL69:
 1094               	.L94:
 1095               	.LM118:
 1096 04e4 8170      		andi r24,lo8(1)
 1097 04e6 9070      		andi r25,hi8(1)
 1098 04e8 892B      		or r24,r25
 1099 04ea 01F4      		brne .L95
 1100               	.LM119:
 1101 04ec 8CE2      		ldi r24,lo8(300)
 1102 04ee 91E0      		ldi r25,hi8(300)
 1103               	.LVL70:
 1104 04f0 0E94 0000 		call right_fwd
 1105               	.LVL71:
 1106 04f4 80ED      		ldi r24,lo8(2000)
 1107 04f6 97E0      		ldi r25,hi8(2000)
 1108               	.LVL72:
 1109               	.LBB150:
 1110               	.LBB151:
 1111               	.LBB152:
 1112               	.LBB153:
 1113               	.LM120:
 1114 04f8 20E9      		ldi r18,lo8(400)
 1115 04fa 31E0      		ldi r19,hi8(400)
 1116               	.L96:
 1117 04fc F901      		movw r30,r18
 1118               	.LVL73:
 1119               	/* #APP */
 1120               	 ;  105 "d:/winavr-20100110/lib/gcc/../../avr/include/util/delay_basic.h" 1
 1121 04fe 3197      		1: sbiw r30,1
 1122 0500 01F4      		brne 1b
 1123               	 ;  0 "" 2
 1124               	/* #NOAPP */
 1125               	.LBE153:
 1126               	.LBE152:
 1127               	.LM121:
 1128 0502 0197      		sbiw r24,1
 1129               	.LM122:
 1130 0504 01F4      		brne .L96
 1131 0506 00C0      		rjmp .L97
 1132               	.LVL74:
 1133               	.L95:
 1134               	.LBE151:
 1135               	.LBE150:
 1136               	.LM123:
 1137 0508 84EF      		ldi r24,lo8(500)
 1138 050a 91E0      		ldi r25,hi8(500)
 1139               	.LVL75:
 1140 050c 0E94 0000 		call fwd
 1141               	.LVL76:
 1142 0510 80ED      		ldi r24,lo8(2000)
 1143 0512 97E0      		ldi r25,hi8(2000)
 1144               	.LVL77:
 1145               	.LBB154:
 1146               	.LBB155:
 1147               	.LBB156:
 1148               	.LBB157:
 1149               	.LM124:
 1150 0514 20E9      		ldi r18,lo8(400)
 1151 0516 31E0      		ldi r19,hi8(400)
 1152               	.L98:
 1153 0518 F901      		movw r30,r18
 1154               	.LVL78:
 1155               	/* #APP */
 1156               	 ;  105 "d:/winavr-20100110/lib/gcc/../../avr/include/util/delay_basic.h" 1
 1157 051a 3197      		1: sbiw r30,1
 1158 051c 01F4      		brne 1b
 1159               	 ;  0 "" 2
 1160               	/* #NOAPP */
 1161               	.LBE157:
 1162               	.LBE156:
 1163               	.LM125:
 1164 051e 0197      		sbiw r24,1
 1165               	.LM126:
 1166 0520 01F4      		brne .L98
 1167               	.LVL79:
 1168               	.L97:
 1169               	.LBE155:
 1170               	.LBE154:
 1171               	.LM127:
 1172 0522 80E0      		ldi r24,lo8(0)
 1173 0524 90E0      		ldi r25,hi8(0)
 1174               	.LVL80:
 1175               	/* epilogue start */
 1176 0526 0895      		ret
 1177               	.LFE14:
 1267               	.Letext0:
DEFINED SYMBOLS
                            *ABS*:00000000 grid2.c
D:\DOCUME~1\ADMINI~1\LOCALS~1\Temp/ccZuQxpQ.s:2      *ABS*:0000003f __SREG__
D:\DOCUME~1\ADMINI~1\LOCALS~1\Temp/ccZuQxpQ.s:3      *ABS*:0000003e __SP_H__
D:\DOCUME~1\ADMINI~1\LOCALS~1\Temp/ccZuQxpQ.s:4      *ABS*:0000003d __SP_L__
D:\DOCUME~1\ADMINI~1\LOCALS~1\Temp/ccZuQxpQ.s:5      *ABS*:00000034 __CCP__
D:\DOCUME~1\ADMINI~1\LOCALS~1\Temp/ccZuQxpQ.s:6      *ABS*:00000000 __tmp_reg__
D:\DOCUME~1\ADMINI~1\LOCALS~1\Temp/ccZuQxpQ.s:7      *ABS*:00000001 __zero_reg__
D:\DOCUME~1\ADMINI~1\LOCALS~1\Temp/ccZuQxpQ.s:18     .text:00000000 fwd
D:\DOCUME~1\ADMINI~1\LOCALS~1\Temp/ccZuQxpQ.s:178    .text:000000ba bck
D:\DOCUME~1\ADMINI~1\LOCALS~1\Temp/ccZuQxpQ.s:339    .text:00000176 right_fwd
D:\DOCUME~1\ADMINI~1\LOCALS~1\Temp/ccZuQxpQ.s:502    .text:00000234 right_bck
D:\DOCUME~1\ADMINI~1\LOCALS~1\Temp/ccZuQxpQ.s:665    .text:000002f2 left_fwd
D:\DOCUME~1\ADMINI~1\LOCALS~1\Temp/ccZuQxpQ.s:828    .text:000003b0 left_bck
D:\DOCUME~1\ADMINI~1\LOCALS~1\Temp/ccZuQxpQ.s:991    .text:0000046e halt
D:\DOCUME~1\ADMINI~1\LOCALS~1\Temp/ccZuQxpQ.s:1009   .text:00000478 uturn
D:\DOCUME~1\ADMINI~1\LOCALS~1\Temp/ccZuQxpQ.s:1038   .text:00000494 main

UNDEFINED SYMBOLS
__floatunsisf
__mulsf3
__ltsf2
__gtsf2
__fixunssfsi
